target datalayout = "e-m:e-p270:32:32-p271:32:32-p272:64:64-i64:64-i128:128-f80:128-n8:16:32:64-S128"
target triple = "x86_64-pc-linux-gnu"

%"class.base::File" = type <{ %"class.base::ScopedGeneric", [4 x i8], %"class.base::FilePath", [4 x i8], i32, i8, i8, [6 x i8] }>
%"class.base::ScopedGeneric" = type { %"struct.base::ScopedGeneric<int, base::internal::ScopedFDCloseTraits>::Data" }
%"struct.base::ScopedGeneric<int, base::internal::ScopedFDCloseTraits>::Data" = type { i32 }
%"class.base::FilePath" = type { %"class.std::__cxx11::basic_string" }
%"class.std::__cxx11::basic_string" = type { %"struct.std::__cxx11::basic_string<char>::_Alloc_hider", i64, %union.anon }
%"struct.std::__cxx11::basic_string<char>::_Alloc_hider" = type { ptr }
%union.anon = type { i64, [8 x i8] }
%"class.base::FileTracing::ScopedTrace" = type { ptr, ptr }

@.str.10 = private unnamed_addr constant [16 x i8] c"File::SetLength\00", align 1

; Function Attrs: mustprogress nounwind uwtable
define internal noundef i32 @_ZN4base12_GLOBAL__N_113CallFtruncateEil(i32 noundef %0, i64 noundef %1) #4 {
  %3 = alloca i32, align 4
  %4 = alloca i64, align 8
  %5 = alloca i32, align 4
  %6 = alloca i32, align 4
  store i32 %0, ptr %3, align 4, !tbaa !41
  store i64 %1, ptr %4, align 8, !tbaa !24
  call void @llvm.lifetime.start.p0(i64 4, ptr %5) #14
  br label %7

7:                                                ; preds = %18, %2
  %8 = load i32, ptr %3, align 4, !tbaa !41
  %9 = load i64, ptr %4, align 8, !tbaa !24
  %10 = call i32 @ftruncate(i32 noundef %8, i64 noundef %9) #14
  store i32 %10, ptr %5, align 4, !tbaa !41
  br label %11

11:                                               ; preds = %7
  %12 = load i32, ptr %5, align 4, !tbaa !41
  %13 = icmp eq i32 %12, -1
  br i1 %13, label %14, label %18

14:                                               ; preds = %11
  %15 = call ptr @__errno_location() #16
  %16 = load i32, ptr %15, align 4, !tbaa !41
  %17 = icmp eq i32 %16, 4
  br label %18

18:                                               ; preds = %14, %11
  %19 = phi i1 [ false, %11 ], [ %17, %14 ]
  br i1 %19, label %7, label %20, !llvm.loop !60

20:                                               ; preds = %18
  %21 = load i32, ptr %5, align 4, !tbaa !41
  store i32 %21, ptr %6, align 4, !tbaa !41
  call void @llvm.lifetime.end.p0(i64 4, ptr %5) #14
  %22 = load i32, ptr %6, align 4, !tbaa !41
  ret i32 %22
}

; Function Attrs: mustprogress nounwind uwtable
define linkonce_odr noundef nonnull align 4 dereferenceable(4) ptr @_ZNK4base13ScopedGenericIiNS_8internal19ScopedFDCloseTraitsEE3getEv(ptr noundef nonnull align 4 dereferenceable(4) %0) #4 comdat align 2 {
  %2 = alloca ptr, align 8
  store ptr %0, ptr %2, align 8, !tbaa !36
  %3 = load ptr, ptr %2, align 8
  %4 = getelementptr inbounds nuw %"class.base::ScopedGeneric", ptr %3, i32 0, i32 0
  %5 = getelementptr inbounds nuw %"struct.base::ScopedGeneric<int, base::internal::ScopedFDCloseTraits>::Data", ptr %4, i32 0, i32 0
  ret ptr %5
}

; Function Attrs: mustprogress nounwind uwtable
define linkonce_odr void @_ZN4base18ThreadRestrictions15AssertIOAllowedEv() #4 comdat align 2 {
  ret void
}

; Function Attrs: mustprogress uwtable
define noundef zeroext i1 @_ZN4base4File9SetLengthEl(ptr noundef nonnull align 8 dereferenceable(50) %0, i64 noundef %1) #0 align 2 personality ptr @__gxx_personality_v0 {
  %3 = alloca ptr, align 8
  %4 = alloca i64, align 8
  %5 = alloca %"class.base::FileTracing::ScopedTrace", align 8
  %6 = alloca ptr, align 8
  %7 = alloca i32, align 4
  store ptr %0, ptr %3, align 8, !tbaa !34
  store i64 %1, ptr %4, align 8, !tbaa !24
  %8 = load ptr, ptr %3, align 8
  call void @_ZN4base18ThreadRestrictions15AssertIOAllowedEv()
  call void @llvm.lifetime.start.p0(i64 16, ptr %5) #14
  call void @_ZN4base11FileTracing11ScopedTraceC1Ev(ptr noundef nonnull align 8 dereferenceable(16) %5)
  %9 = invoke noundef zeroext i1 @_ZN4base11FileTracing17IsCategoryEnabledEv()
          to label %10 unwind label %14

10:                                               ; preds = %2
  br i1 %9, label %11, label %18

11:                                               ; preds = %10
  %12 = load i64, ptr %4, align 8, !tbaa !24
  invoke void @_ZN4base11FileTracing11ScopedTrace10InitializeEPKcPKNS_4FileEl(ptr noundef nonnull align 8 dereferenceable(16) %5, ptr noundef @.str.10, ptr noundef %8, i64 noundef %12)
          to label %13 unwind label %14

13:                                               ; preds = %11
  br label %18

14:                                               ; preds = %21, %18, %11, %2
  %15 = landingpad { ptr, i32 }
          cleanup
  %16 = extractvalue { ptr, i32 } %15, 0
  store ptr %16, ptr %6, align 8
  %17 = extractvalue { ptr, i32 } %15, 1
  store i32 %17, ptr %7, align 4
  call void @_ZN4base11FileTracing11ScopedTraceD1Ev(ptr noundef nonnull align 8 dereferenceable(16) %5) #14
  call void @llvm.lifetime.end.p0(i64 16, ptr %5) #14
  br label %28

18:                                               ; preds = %13, %10
  %19 = getelementptr inbounds nuw %"class.base::File", ptr %8, i32 0, i32 0
  %20 = invoke noundef nonnull align 4 dereferenceable(4) ptr @_ZNK4base13ScopedGenericIiNS_8internal19ScopedFDCloseTraitsEE3getEv(ptr noundef nonnull align 4 dereferenceable(4) %19)
          to label %21 unwind label %14

21:                                               ; preds = %18
  %22 = load i32, ptr %20, align 4, !tbaa !41
  %23 = load i64, ptr %4, align 8, !tbaa !24
  %24 = invoke noundef i32 @_ZN4base12_GLOBAL__N_113CallFtruncateEil(i32 noundef %22, i64 noundef %23)
          to label %25 unwind label %14

25:                                               ; preds = %21
  %26 = icmp ne i32 %24, 0
  %27 = xor i1 %26, true
  call void @_ZN4base11FileTracing11ScopedTraceD1Ev(ptr noundef nonnull align 8 dereferenceable(16) %5) #14
  call void @llvm.lifetime.end.p0(i64 16, ptr %5) #14
  ret i1 %27

28:                                               ; preds = %14
  %29 = load ptr, ptr %6, align 8
  %30 = load i32, ptr %7, align 4
  %31 = insertvalue { ptr, i32 } poison, ptr %29, 0
  %32 = insertvalue { ptr, i32 } %31, i32 %30, 1
  resume { ptr, i32 } %32
}