; Function Attrs: mustprogress uwtable
define noundef zeroext i1 @_ZN4base4File9SetLengthEl(ptr noundef nonnull align 8 dereferenceable(50) %0, i64 noundef %1) local_unnamed_addr #0 align 2 personality ptr @__gxx_personality_v0 {
  %3 = alloca %"class.base::FileTracing::ScopedTrace", align 8
  call void @llvm.lifetime.start.p0(i64 16, ptr nonnull %3) #14
  call void @_ZN4base11FileTracing11ScopedTraceC1Ev(ptr noundef nonnull align 8 dereferenceable(16) %3)
  %4 = invoke noundef zeroext i1 @_ZN4base11FileTracing17IsCategoryEnabledEv()
          to label %5 unwind label %7

5:                                                ; preds = %2
  br i1 %4, label %6, label %9

6:                                                ; preds = %5
  invoke void @_ZN4base11FileTracing11ScopedTrace10InitializeEPKcPKNS_4FileEl(ptr noundef nonnull align 8 dereferenceable(16) %3, ptr noundef nonnull @.str.10, ptr noundef nonnull %0, i64 noundef %1)
          to label %9 unwind label %7

7:                                                ; preds = %6, %2
  %8 = landingpad { ptr, i32 }
          cleanup
  call void @_ZN4base11FileTracing11ScopedTraceD1Ev(ptr noundef nonnull align 8 dereferenceable(16) %3) #14
  call void @llvm.lifetime.end.p0(i64 16, ptr nonnull %3) #14
  resume { ptr, i32 } %8

9:                                                ; preds = %6, %5
  %10 = load i32, ptr %0, align 8, !tbaa !27
  br label %11

11:                                               ; preds = %14, %9
  %12 = call i32 @ftruncate(i32 noundef %10, i64 noundef %1) #14
  %13 = icmp eq i32 %12, -1
  br i1 %13, label %14, label %_ZN4base12_GLOBAL__N_113CallFtruncateEil.exit

14:                                               ; preds = %11
  %15 = tail call ptr @__errno_location() #15
  %16 = load i32, ptr %15, align 4, !tbaa !27
  %17 = icmp eq i32 %16, 4
  br i1 %17, label %11, label %_ZN4base12_GLOBAL__N_113CallFtruncateEil.exit, !llvm.loop !40

_ZN4base12_GLOBAL__N_113CallFtruncateEil.exit:    ; preds = %11, %14
  %.not = icmp eq i32 %12, 0
  call void @_ZN4base11FileTracing11ScopedTraceD1Ev(ptr noundef nonnull align 8 dereferenceable(16) %3) #14
  call void @llvm.lifetime.end.p0(i64 16, ptr nonnull %3) #14
  ret i1 %.not
}